; Function Attrs: alwaysinline norecurse nounwind uwtable
define internal void @_ZN5faiss9HeapArrayINS_4CMinIfiEEE7heapifyEv.omp_outlined(ptr noalias noundef readonly captures(none) %0, ptr noalias readnone captures(none) %1, ptr noundef readonly captures(none) %2) #1 personality ptr @__gxx_personality_v0 {
  %4 = alloca i64, align 8
  %5 = alloca i64, align 8
  %6 = alloca i64, align 8
  %7 = alloca i32, align 4
  %8 = load i64, ptr %2, align 8, !tbaa !71
  %.not = icmp eq i64 %8, 0
  br i1 %.not, label %28, label %9

9:                                                ; preds = %3
  %10 = add i64 %8, -1
  call void @llvm.lifetime.start.p0(i64 8, ptr nonnull %4) #3
  store i64 0, ptr %4, align 8, !tbaa !15
  call void @llvm.lifetime.start.p0(i64 8, ptr nonnull %5) #3
  store i64 %10, ptr %5, align 8, !tbaa !15
  call void @llvm.lifetime.start.p0(i64 8, ptr nonnull %6) #3
  store i64 1, ptr %6, align 8, !tbaa !15
  call void @llvm.lifetime.start.p0(i64 4, ptr nonnull %7) #3
  store i32 0, ptr %7, align 4, !tbaa !16
  %11 = load i32, ptr %0, align 4, !tbaa !16
  call void @__kmpc_for_static_init_8u(ptr nonnull @1, i32 %11, i32 34, ptr nonnull %7, ptr nonnull %4, ptr nonnull %5, ptr nonnull %6, i64 1, i64 1)
  %12 = load i64, ptr %5, align 8, !tbaa !15
  %13 = call i64 @llvm.umin.i64(i64 %12, i64 %10)
  store i64 %13, ptr %5, align 8, !tbaa !15
  %14 = load i64, ptr %4, align 8, !tbaa !15
  %.not15 = icmp ugt i64 %14, %13
  br i1 %.not15, label %._crit_edge, label %.lr.ph

.lr.ph:                                           ; preds = %9
  %15 = getelementptr inbounds nuw i8, ptr %2, i64 8
  %16 = load i64, ptr %15, align 8, !tbaa !69
  %17 = getelementptr inbounds nuw i8, ptr %2, i64 24
  %18 = load ptr, ptr %17, align 8, !tbaa !66
  %19 = getelementptr inbounds nuw i8, ptr %2, i64 16
  %20 = load ptr, ptr %19, align 8, !tbaa !70
  %.not12 = icmp eq i64 %16, 0
  br i1 %.not12, label %._crit_edge, label %.lr.ph45.i.preheader

.lr.ph45.i.preheader:                             ; preds = %.lr.ph, %_ZN5faiss12heap_heapifyINS_4CMinIfiEEEEvmPNT_1TEPNS3_2TIEPKS4_PKS6_m.exit.loopexit
  %.013 = phi i64 [ %27, %_ZN5faiss12heap_heapifyINS_4CMinIfiEEEEvmPNT_1TEPNS3_2TIEPKS4_PKS6_m.exit.loopexit ], [ %14, %.lr.ph ]
  %21 = mul i64 %16, %.013
  %22 = getelementptr inbounds nuw float, ptr %18, i64 %21
  %23 = getelementptr inbounds nuw i32, ptr %20, i64 %21
  br label %.lr.ph45.i

.lr.ph45.i:                                       ; preds = %.lr.ph45.i.preheader, %.lr.ph45.i
  %.044.i = phi i64 [ %26, %.lr.ph45.i ], [ 0, %.lr.ph45.i.preheader ]
  %24 = getelementptr inbounds nuw float, ptr %22, i64 %.044.i
  store float 0xC7EFFFFFE0000000, ptr %24, align 4, !tbaa !18
  %25 = getelementptr inbounds nuw i32, ptr %23, i64 %.044.i
  store i32 -1, ptr %25, align 4, !tbaa !16
  %26 = add nuw i64 %.044.i, 1
  %exitcond50.not.i = icmp eq i64 %26, %16
  br i1 %exitcond50.not.i, label %_ZN5faiss12heap_heapifyINS_4CMinIfiEEEEvmPNT_1TEPNS3_2TIEPKS4_PKS6_m.exit.loopexit, label %.lr.ph45.i, !llvm.loop !72

_ZN5faiss12heap_heapifyINS_4CMinIfiEEEEvmPNT_1TEPNS3_2TIEPKS4_PKS6_m.exit.loopexit: ; preds = %.lr.ph45.i
  %27 = add nuw i64 %.013, 1
  %exitcond.not = icmp eq i64 %.013, %13
  br i1 %exitcond.not, label %._crit_edge, label %.lr.ph45.i.preheader

._crit_edge:                                      ; preds = %_ZN5faiss12heap_heapifyINS_4CMinIfiEEEEvmPNT_1TEPNS3_2TIEPKS4_PKS6_m.exit.loopexit, %.lr.ph, %9
  call void @__kmpc_for_static_fini(ptr nonnull @1, i32 %11)
  call void @llvm.lifetime.end.p0(i64 4, ptr nonnull %7) #3
  call void @llvm.lifetime.end.p0(i64 8, ptr nonnull %6) #3
  call void @llvm.lifetime.end.p0(i64 8, ptr nonnull %5) #3
  call void @llvm.lifetime.end.p0(i64 8, ptr nonnull %4) #3
  br label %28

28:                                               ; preds = %._crit_edge, %3
  ret void
}